target datalayout = "e-m:e-p270:32:32-p271:32:32-p272:64:64-i64:64-i128:128-f80:128-n8:16:32:64-S128"
target triple = "x86_64-pc-linux-gnu"

%"class.std::__cxx11::basic_string" = type { %"struct.std::__cxx11::basic_string<char>::_Alloc_hider", i64, %union.anon.0 }
%"struct.std::__cxx11::basic_string<char>::_Alloc_hider" = type { ptr }
%union.anon.0 = type { i64, [8 x i8] }
%"struct.vcpkg::LocalizedString" = type { %"class.std::__cxx11::basic_string" }
%"struct.vcpkg::DiagnosticLine" = type { i32, %"struct.vcpkg::Optional", %"struct.vcpkg::TextRowCol", %"struct.vcpkg::LocalizedString" }
%"struct.vcpkg::Optional" = type { %"struct.vcpkg::details::OptionalStorage" }
%"struct.vcpkg::details::OptionalStorage" = type { %"struct.vcpkg::details::OptionalStorageDtor" }
%"struct.vcpkg::details::OptionalStorageDtor" = type { i8, %union.anon }
%union.anon = type { %"class.std::__cxx11::basic_string" }
%"struct.vcpkg::TextRowCol" = type { i32, i32 }

; Function Attrs: mustprogress uwtable
define dso_local void @_ZNO5vcpkg14DiagnosticLine17reduce_to_warningEv(ptr dead_on_unwind noalias writable sret(%"struct.vcpkg::DiagnosticLine") align 8 %0, ptr noundef nonnull align 8 dereferenceable(88) %1) #0 align 2 {
  %3 = alloca ptr, align 8
  %4 = alloca ptr, align 8
  %5 = alloca %"struct.vcpkg::TextRowCol", align 4
  store ptr %0, ptr %3, align 8
  store ptr %1, ptr %4, align 8, !tbaa !9
  %6 = load ptr, ptr %4, align 8
  %7 = getelementptr inbounds nuw %"struct.vcpkg::DiagnosticLine", ptr %6, i32 0, i32 0
  %8 = load i32, ptr %7, align 8, !tbaa !36
  %9 = icmp eq i32 %8, 2
  br i1 %9, label %10, label %11

10:                                               ; preds = %2
  br label %14

11:                                               ; preds = %2
  %12 = getelementptr inbounds nuw %"struct.vcpkg::DiagnosticLine", ptr %6, i32 0, i32 0
  %13 = load i32, ptr %12, align 8, !tbaa !36
  br label %14

14:                                               ; preds = %11, %10
  %15 = phi i32 [ 3, %10 ], [ %13, %11 ]
  %16 = getelementptr inbounds nuw %"struct.vcpkg::DiagnosticLine", ptr %6, i32 0, i32 1
  %17 = getelementptr inbounds nuw %"struct.vcpkg::DiagnosticLine", ptr %6, i32 0, i32 2
  call void @llvm.memcpy.p0.p0.i64(ptr align 4 %5, ptr align 8 %17, i64 8, i1 false), !tbaa.struct !66
  %18 = getelementptr inbounds nuw %"struct.vcpkg::DiagnosticLine", ptr %6, i32 0, i32 3
  %19 = load i64, ptr %5, align 4
  call void @_ZN5vcpkg14DiagnosticLineC1ENS_8DiagKindEONS_8OptionalINSt7__cxx1112basic_stringIcSt11char_traitsIcESaIcEEEEENS_10TextRowColEONS_15LocalizedStringE(ptr noundef nonnull align 8 dereferenceable(88) %0, i32 noundef %15, ptr noundef nonnull align 8 dereferenceable(40) %16, i64 %19, ptr noundef nonnull align 8 dereferenceable(32) %18)
  ret void
}