; Function Attrs: mustprogress nofree norecurse nosync nounwind willreturn memory(argmem: readwrite, inaccessiblemem: write) uwtable
define dso_local void @_ZNO5vcpkg14DiagnosticLine17reduce_to_warningEv(ptr dead_on_unwind noalias writable sret(%"struct.vcpkg::DiagnosticLine") align 8 initializes((0, 4), (8, 9), (16, 17)) %0, ptr noundef nonnull align 8 dereferenceable(88) %1) local_unnamed_addr #8 align 2 personality ptr @__gxx_personality_v0 {
  %3 = load i32, ptr %1, align 8, !tbaa !30
  %4 = icmp eq i32 %3, 2
  %spec.select = select i1 %4, i32 3, i32 %3
  %5 = getelementptr inbounds nuw i8, ptr %1, i64 8
  %6 = getelementptr inbounds nuw i8, ptr %1, i64 48
  %.sroa.0.0.copyload = load i64, ptr %6, align 8
  %7 = getelementptr inbounds nuw i8, ptr %1, i64 56
  store i32 %spec.select, ptr %0, align 8, !tbaa !30
  %8 = getelementptr inbounds nuw i8, ptr %0, i64 8
  store i8 0, ptr %8, align 8, !tbaa !39
  %9 = getelementptr inbounds nuw i8, ptr %0, i64 16
  store i8 0, ptr %9, align 8, !tbaa !18
  %10 = load i8, ptr %5, align 8, !tbaa !39, !range !40, !noundef !41
  %11 = trunc nuw i8 %10 to i1
  br i1 %11, label %12, label %_ZN5vcpkg8OptionalINSt7__cxx1112basic_stringIcSt11char_traitsIcESaIcEEEEC2EOS7_.exit.i

12:                                               ; preds = %2
  store i8 1, ptr %8, align 8, !tbaa !39
  %13 = getelementptr inbounds nuw i8, ptr %1, i64 16
  %14 = getelementptr inbounds nuw i8, ptr %0, i64 32
  store ptr %14, ptr %9, align 8, !tbaa !19
  %15 = load ptr, ptr %13, align 8, !tbaa !12
  %16 = getelementptr inbounds nuw i8, ptr %1, i64 32
  %17 = icmp eq ptr %15, %16
  br i1 %17, label %18, label %_ZNKSt7__cxx1112basic_stringIcSt11char_traitsIcESaIcEE11_M_is_localEv.exit.i.i.i.i

18:                                               ; preds = %12
  %19 = getelementptr inbounds nuw i8, ptr %1, i64 24
  %20 = load i64, ptr %19, align 8, !tbaa !17
  %21 = icmp ult i64 %20, 16
  tail call void @llvm.assume(i1 %21)
  %22 = add nuw nsw i64 %20, 1
  tail call void @llvm.memcpy.p0.p0.i64(ptr noundef nonnull align 8 dereferenceable(1) %14, ptr noundef nonnull align 8 dereferenceable(1) %16, i64 %22, i1 false)
  br label %_ZNSt7__cxx1112basic_stringIcSt11char_traitsIcESaIcEEC2EOS4_.exit.i.i.i

_ZNKSt7__cxx1112basic_stringIcSt11char_traitsIcESaIcEE11_M_is_localEv.exit.i.i.i.i: ; preds = %12
  store ptr %15, ptr %9, align 8, !tbaa !12
  %23 = load i64, ptr %16, align 8, !tbaa !18
  store i64 %23, ptr %14, align 8, !tbaa !18
  %.phi.trans.insert = getelementptr inbounds nuw i8, ptr %1, i64 24
  %.pre = load i64, ptr %.phi.trans.insert, align 8, !tbaa !17
  br label %_ZNSt7__cxx1112basic_stringIcSt11char_traitsIcESaIcEEC2EOS4_.exit.i.i.i

_ZNSt7__cxx1112basic_stringIcSt11char_traitsIcESaIcEEC2EOS4_.exit.i.i.i: ; preds = %_ZNKSt7__cxx1112basic_stringIcSt11char_traitsIcESaIcEE11_M_is_localEv.exit.i.i.i.i, %18
  %24 = phi i64 [ %.pre, %_ZNKSt7__cxx1112basic_stringIcSt11char_traitsIcESaIcEE11_M_is_localEv.exit.i.i.i.i ], [ %20, %18 ]
  %25 = getelementptr inbounds nuw i8, ptr %1, i64 24
  %26 = getelementptr inbounds nuw i8, ptr %0, i64 24
  store i64 %24, ptr %26, align 8, !tbaa !17
  store ptr %16, ptr %13, align 8, !tbaa !12
  store i64 0, ptr %25, align 8, !tbaa !17
  store i8 0, ptr %16, align 8, !tbaa !18
  br label %_ZN5vcpkg8OptionalINSt7__cxx1112basic_stringIcSt11char_traitsIcESaIcEEEEC2EOS7_.exit.i

_ZN5vcpkg8OptionalINSt7__cxx1112basic_stringIcSt11char_traitsIcESaIcEEEEC2EOS7_.exit.i: ; preds = %_ZNSt7__cxx1112basic_stringIcSt11char_traitsIcESaIcEEC2EOS4_.exit.i.i.i, %2
  %27 = getelementptr inbounds nuw i8, ptr %0, i64 48
  store i64 %.sroa.0.0.copyload, ptr %27, align 8
  %28 = getelementptr inbounds nuw i8, ptr %0, i64 56
  %29 = getelementptr inbounds nuw i8, ptr %0, i64 72
  store ptr %29, ptr %28, align 8, !tbaa !19
  %30 = load ptr, ptr %7, align 8, !tbaa !12
  %31 = getelementptr inbounds nuw i8, ptr %1, i64 72
  %32 = icmp eq ptr %30, %31
  br i1 %32, label %33, label %_ZNKSt7__cxx1112basic_stringIcSt11char_traitsIcESaIcEE11_M_is_localEv.exit.i.i.i

33:                                               ; preds = %_ZN5vcpkg8OptionalINSt7__cxx1112basic_stringIcSt11char_traitsIcESaIcEEEEC2EOS7_.exit.i
  %34 = getelementptr inbounds nuw i8, ptr %1, i64 64
  %35 = load i64, ptr %34, align 8, !tbaa !17
  %36 = icmp ult i64 %35, 16
  tail call void @llvm.assume(i1 %36)
  %37 = add nuw nsw i64 %35, 1
  tail call void @llvm.memcpy.p0.p0.i64(ptr noundef nonnull align 8 dereferenceable(1) %29, ptr noundef nonnull align 8 dereferenceable(1) %31, i64 %37, i1 false)
  br label %_ZN5vcpkg14DiagnosticLineC2ENS_8DiagKindEONS_8OptionalINSt7__cxx1112basic_stringIcSt11char_traitsIcESaIcEEEEENS_10TextRowColEONS_15LocalizedStringE.exit

_ZNKSt7__cxx1112basic_stringIcSt11char_traitsIcESaIcEE11_M_is_localEv.exit.i.i.i: ; preds = %_ZN5vcpkg8OptionalINSt7__cxx1112basic_stringIcSt11char_traitsIcESaIcEEEEC2EOS7_.exit.i
  store ptr %30, ptr %28, align 8, !tbaa !12
  %38 = load i64, ptr %31, align 8, !tbaa !18
  store i64 %38, ptr %29, align 8, !tbaa !18
  %.phi.trans.insert1 = getelementptr inbounds nuw i8, ptr %1, i64 64
  %.pre2 = load i64, ptr %.phi.trans.insert1, align 8, !tbaa !17
  br label %_ZN5vcpkg14DiagnosticLineC2ENS_8DiagKindEONS_8OptionalINSt7__cxx1112basic_stringIcSt11char_traitsIcESaIcEEEEENS_10TextRowColEONS_15LocalizedStringE.exit

_ZN5vcpkg14DiagnosticLineC2ENS_8DiagKindEONS_8OptionalINSt7__cxx1112basic_stringIcSt11char_traitsIcESaIcEEEEENS_10TextRowColEONS_15LocalizedStringE.exit: ; preds = %33, %_ZNKSt7__cxx1112basic_stringIcSt11char_traitsIcESaIcEE11_M_is_localEv.exit.i.i.i
  %39 = phi i64 [ %35, %33 ], [ %.pre2, %_ZNKSt7__cxx1112basic_stringIcSt11char_traitsIcESaIcEE11_M_is_localEv.exit.i.i.i ]
  %40 = getelementptr inbounds nuw i8, ptr %1, i64 64
  %41 = getelementptr inbounds nuw i8, ptr %0, i64 64
  store i64 %39, ptr %41, align 8, !tbaa !17
  store ptr %31, ptr %7, align 8, !tbaa !12
  store i64 0, ptr %40, align 8, !tbaa !17
  store i8 0, ptr %31, align 8, !tbaa !18
  ret void
}